; Function Attrs: mustprogress uwtable
define hidden noundef ptr @_ZN9format_ns10mk_composeER11ast_managerP3appS3_S3_(ptr noundef nonnull align 8 dereferenceable(976) %0, ptr noundef %1, ptr noundef %2, ptr noundef %3) local_unnamed_addr #3 {
  %5 = getelementptr inbounds nuw i8, ptr %0, i64 928
  %6 = load ptr, ptr %5, align 8, !tbaa !3
  %7 = icmp eq ptr %6, null
  %8 = select i1 %7, ptr %0, ptr %6
  %9 = tail call noundef i32 @_ZN9format_ns20get_format_family_idER11ast_manager(ptr noundef nonnull align 8 dereferenceable(976) %0)
  %10 = tail call noundef ptr @_ZN11ast_manager6mk_appEiiP4exprS1_S1_(ptr noundef nonnull align 8 dereferenceable(976) %8, i32 noundef %9, i32 noundef 3, ptr noundef %1, ptr noundef %2, ptr noundef %3)
  ret ptr %10
}